(lp0
(S'cppflags'
p1
ccopy_reg
_reconstructor
p2
(cino.utils
SpaceList
p3
c__builtin__
list
p4
(lp5
S'-mmcu=atmega328p'
p6
aS'-DF_CPU=16000000L'
p7
aS'-DARDUINO=105'
p8
aS'-I/usr/share/arduino/hardware/arduino/cores/arduino'
p9
aS'-ffunction-sections'
p10
aS'-fdata-sections'
p11
aS'-g'
p12
aS'-Os'
p13
aS'-w'
p14
aS'-I/usr/share/arduino/hardware/arduino/variants/standard'
p15
atp16
Rp17
tp18
a(S'version.txt'
p19
S'/usr/share/arduino/lib/version.txt'
p20
tp21
a(S'cc'
p22
S'/usr/share/arduino/hardware/tools/avr/bin/avr-gcc'
p23
tp24
a(S'make'
p25
S'/usr/share/arduino/hardware/tools/avr/bin/make'
p26
tp27
a(S'build_dir'
p28
S'.build/uno'
p29
tp30
a(S'arduino_core_dir'
p31
S'/usr/share/arduino/hardware/arduino/cores/arduino'
p32
tp33
a(S'boards.txt'
p34
(lp35
S'/usr/share/arduino/hardware/arduino/boards.txt'
p36
atp37
a(S'cxxflags'
p38
g2
(g3
g4
(lp39
S'-fno-exceptions'
p40
atp41
Rp42
tp43
a(S'arduino_variants_dir'
p44
S'/usr/share/arduino/hardware/arduino/variants'
p45
tp46
a(S'deps'
p47
g2
(g3
g4
(lp48
tp49
Rp50
tp51
a(S'ar'
p52
S'/usr/share/arduino/hardware/tools/avr/bin/avr-ar'
p53
tp54
a(S'names'
p55
(dp56
S'cpp'
p57
S'%s.cpp'
p58
sS'obj'
p59
S'%s.o'
p60
sg47
S'%s.d'
p61
sS'lib'
p62
S'lib%s.a'
p63
stp64
a(S'cflags'
p65
g2
(g3
g4
(lp66
tp67
Rp68
tp69
a(S'ldflags'
p70
g2
(g3
g4
(lp71
g6
aS'-Wl,-Os'
p72
aS'-Wl,--gc-sections'
p73
atp74
Rp75
tp76
a(S'arduino_libraries_dir'
p77
S'/usr/share/arduino/libraries'
p78
tp79
a(S'arduino_lib_version'
p80
g2
(cino.environment
Version
p81
c__builtin__
tuple
p82
(I1
I0
I5
tp83
tp84
Rp85
tp86
a(S'objcopy'
p87
S'/usr/share/arduino/hardware/tools/avr/bin/avr-objcopy'
p88
tp89
a(S'board_models'
p90
cino.environment
BoardModels
p91
((lp92
(lp93
S'uno'
p94
a(dp95
S'build'
p96
(dp97
S'core'
p98
S'arduino'
p99
sS'mcu'
p100
S'atmega328p'
p101
sS'f_cpu'
p102
S'16000000L'
p103
sS'variant'
p104
S'standard'
p105
ssS'bootloader'
p106
(dp107
S'extended_fuses'
p108
S'0x05'
p109
sS'high_fuses'
p110
S'0xde'
p111
sS'low_fuses'
p112
S'0xff'
p113
sS'lock_bits'
p114
S'0x0F'
p115
sS'file'
p116
S'optiboot_atmega328.hex'
p117
sS'path'
p118
S'optiboot'
p119
sS'unlock_bits'
p120
S'0x3F'
p121
ssS'upload'
p122
(dp123
S'speed'
p124
S'115200'
p125
sS'maximum_size'
p126
S'32256'
p127
sS'protocol'
p128
S'arduino'
p129
ssS'name'
p130
S'Arduino Uno'
p131
sS'_coredir'
p132
S'/usr/share/arduino/hardware/arduino'
p133
saa(lp134
S'atmega328'
p135
a(dp136
S'build'
p137
(dp138
S'core'
p139
S'arduino'
p140
sS'mcu'
p141
S'atmega328p'
p142
sS'f_cpu'
p143
S'16000000L'
p144
sS'variant'
p145
S'standard'
p146
ssS'bootloader'
p147
(dp148
S'extended_fuses'
p149
S'0x05'
p150
sS'high_fuses'
p151
S'0xDA'
p152
sS'low_fuses'
p153
S'0xFF'
p154
sS'lock_bits'
p155
S'0x0F'
p156
sS'file'
p157
S'ATmegaBOOT_168_atmega328.hex'
p158
sS'path'
p159
S'atmega'
p160
sS'unlock_bits'
p161
S'0x3F'
p162
ssS'upload'
p163
(dp164
S'speed'
p165
S'57600'
p166
sS'maximum_size'
p167
S'30720'
p168
sS'protocol'
p169
S'arduino'
p170
ssS'name'
p171
S'Arduino Duemilanove w/ ATmega328'
p172
sg132
S'/usr/share/arduino/hardware/arduino'
p173
saa(lp174
S'diecimila'
p175
a(dp176
S'build'
p177
(dp178
S'core'
p179
S'arduino'
p180
sS'mcu'
p181
S'atmega168'
p182
sS'f_cpu'
p183
S'16000000L'
p184
sS'variant'
p185
S'standard'
p186
ssS'bootloader'
p187
(dp188
S'extended_fuses'
p189
S'0x00'
p190
sS'high_fuses'
p191
S'0xdd'
p192
sS'low_fuses'
p193
S'0xff'
p194
sS'lock_bits'
p195
S'0x0F'
p196
sS'file'
p197
S'ATmegaBOOT_168_diecimila.hex'
p198
sS'path'
p199
S'atmega'
p200
sS'unlock_bits'
p201
S'0x3F'
p202
ssS'upload'
p203
(dp204
S'speed'
p205
S'19200'
p206
sS'maximum_size'
p207
S'14336'
p208
sS'protocol'
p209
S'arduino'
p210
ssS'name'
p211
S'Arduino Diecimila or Duemilanove w/ ATmega168'
p212
sg132
S'/usr/share/arduino/hardware/arduino'
p213
saa(lp214
S'nano328'
p215
a(dp216
S'build'
p217
(dp218
S'core'
p219
S'arduino'
p220
sS'mcu'
p221
S'atmega328p'
p222
sS'f_cpu'
p223
S'16000000L'
p224
sS'variant'
p225
S'eightanaloginputs'
p226
ssS'bootloader'
p227
(dp228
S'extended_fuses'
p229
S'0x05'
p230
sS'high_fuses'
p231
S'0xDA'
p232
sS'low_fuses'
p233
S'0xFF'
p234
sS'lock_bits'
p235
S'0x0F'
p236
sS'file'
p237
S'ATmegaBOOT_168_atmega328.hex'
p238
sS'path'
p239
S'atmega'
p240
sS'unlock_bits'
p241
S'0x3F'
p242
ssS'upload'
p243
(dp244
S'speed'
p245
S'57600'
p246
sS'maximum_size'
p247
S'30720'
p248
sS'protocol'
p249
S'arduino'
p250
ssS'name'
p251
S'Arduino Nano w/ ATmega328'
p252
sg132
S'/usr/share/arduino/hardware/arduino'
p253
saa(lp254
S'nano'
p255
a(dp256
S'build'
p257
(dp258
S'core'
p259
S'arduino'
p260
sS'mcu'
p261
S'atmega168'
p262
sS'f_cpu'
p263
S'16000000L'
p264
sS'variant'
p265
S'eightanaloginputs'
p266
ssS'bootloader'
p267
(dp268
S'extended_fuses'
p269
S'0x00'
p270
sS'high_fuses'
p271
S'0xdd'
p272
sS'low_fuses'
p273
S'0xff'
p274
sS'lock_bits'
p275
S'0x0F'
p276
sS'file'
p277
S'ATmegaBOOT_168_diecimila.hex'
p278
sS'path'
p279
S'atmega'
p280
sS'unlock_bits'
p281
S'0x3F'
p282
ssS'upload'
p283
(dp284
S'speed'
p285
S'19200'
p286
sS'maximum_size'
p287
S'14336'
p288
sS'protocol'
p289
S'arduino'
p290
ssS'name'
p291
S'Arduino Nano w/ ATmega168'
p292
sg132
S'/usr/share/arduino/hardware/arduino'
p293
saa(lp294
S'mega2560'
p295
a(dp296
S'build'
p297
(dp298
S'core'
p299
S'arduino'
p300
sS'mcu'
p301
S'atmega2560'
p302
sS'f_cpu'
p303
S'16000000L'
p304
sS'variant'
p305
S'mega'
p306
ssS'bootloader'
p307
(dp308
S'extended_fuses'
p309
S'0xFD'
p310
sS'high_fuses'
p311
S'0xD8'
p312
sS'low_fuses'
p313
S'0xFF'
p314
sS'lock_bits'
p315
S'0x0F'
p316
sS'file'
p317
S'stk500boot_v2_mega2560.hex'
p318
sS'path'
p319
S'stk500v2'
p320
sS'unlock_bits'
p321
S'0x3F'
p322
ssS'upload'
p323
(dp324
S'speed'
p325
S'115200'
p326
sS'maximum_size'
p327
S'258048'
p328
sS'protocol'
p329
S'wiring'
p330
ssS'name'
p331
S'Arduino Mega 2560 or Mega ADK'
p332
sg132
S'/usr/share/arduino/hardware/arduino'
p333
saa(lp334
S'mega'
p335
a(dp336
S'build'
p337
(dp338
S'core'
p339
S'arduino'
p340
sS'mcu'
p341
S'atmega1280'
p342
sS'f_cpu'
p343
S'16000000L'
p344
sS'variant'
p345
S'mega'
p346
ssS'bootloader'
p347
(dp348
S'extended_fuses'
p349
S'0xF5'
p350
sS'high_fuses'
p351
S'0xDA'
p352
sS'low_fuses'
p353
S'0xFF'
p354
sS'lock_bits'
p355
S'0x0F'
p356
sS'file'
p357
S'ATmegaBOOT_168_atmega1280.hex'
p358
sS'path'
p359
S'atmega'
p360
sS'unlock_bits'
p361
S'0x3F'
p362
ssS'upload'
p363
(dp364
S'speed'
p365
S'57600'
p366
sS'maximum_size'
p367
S'126976'
p368
sS'protocol'
p369
S'arduino'
p370
ssS'name'
p371
S'Arduino Mega (ATmega1280)'
p372
sg132
S'/usr/share/arduino/hardware/arduino'
p373
saa(lp374
S'leonardo'
p375
a(dp376
S'build'
p377
(dp378
S'core'
p379
S'arduino'
p380
sS'f_cpu'
p381
S'16000000L'
p382
sS'vid'
p383
S'0x2341'
p384
sS'pid'
p385
S'0x8036'
p386
sS'variant'
p387
S'leonardo'
p388
sS'mcu'
p389
S'atmega32u4'
p390
ssS'bootloader'
p391
(dp392
S'extended_fuses'
p393
S'0xcb'
p394
sS'high_fuses'
p395
S'0xd8'
p396
sS'low_fuses'
p397
S'0xff'
p398
sS'lock_bits'
p399
S'0x2F'
p400
sS'file'
p401
S'Caterina-Leonardo.hex'
p402
sS'path'
p403
S'caterina'
p404
sS'unlock_bits'
p405
S'0x3F'
p406
ssS'upload'
p407
(dp408
S'speed'
p409
S'57600'
p410
sS'maximum_size'
p411
S'28672'
p412
sS'protocol'
p413
S'avr109'
p414
sS'disable_flushing'
p415
S'true'
p416
ssS'name'
p417
S'Arduino Leonardo'
p418
sg132
S'/usr/share/arduino/hardware/arduino'
p419
saa(lp420
S'esplora'
p421
a(dp422
S'build'
p423
(dp424
S'core'
p425
S'arduino'
p426
sS'f_cpu'
p427
S'16000000L'
p428
sS'vid'
p429
S'0x2341'
p430
sS'pid'
p431
S'0x803C'
p432
sS'variant'
p433
S'leonardo'
p434
sS'mcu'
p435
S'atmega32u4'
p436
ssS'bootloader'
p437
(dp438
S'extended_fuses'
p439
S'0xcb'
p440
sS'high_fuses'
p441
S'0xd8'
p442
sS'low_fuses'
p443
S'0xff'
p444
sS'lock_bits'
p445
S'0x2F'
p446
sS'file'
p447
S'Caterina-Esplora.hex'
p448
sS'path'
p449
S'caterina'
p450
sS'unlock_bits'
p451
S'0x3F'
p452
ssS'upload'
p453
(dp454
S'speed'
p455
S'57600'
p456
sS'maximum_size'
p457
S'28672'
p458
sS'protocol'
p459
S'avr109'
p460
sS'disable_flushing'
p461
S'true'
p462
ssS'name'
p463
S'Arduino Esplora'
p464
sg132
S'/usr/share/arduino/hardware/arduino'
p465
saa(lp466
S'micro'
p467
a(dp468
S'build'
p469
(dp470
S'core'
p471
S'arduino'
p472
sS'f_cpu'
p473
S'16000000L'
p474
sS'vid'
p475
S'0x2341'
p476
sS'pid'
p477
S'0x8037'
p478
sS'variant'
p479
S'micro'
p480
sS'mcu'
p481
S'atmega32u4'
p482
ssS'bootloader'
p483
(dp484
S'extended_fuses'
p485
S'0xcb'
p486
sS'high_fuses'
p487
S'0xd8'
p488
sS'low_fuses'
p489
S'0xff'
p490
sS'lock_bits'
p491
S'0x2F'
p492
sS'file'
p493
S'Caterina-Micro.hex'
p494
sS'path'
p495
S'caterina'
p496
sS'unlock_bits'
p497
S'0x3F'
p498
ssS'upload'
p499
(dp500
S'speed'
p501
S'57600'
p502
sS'maximum_size'
p503
S'28672'
p504
sS'protocol'
p505
S'avr109'
p506
sS'disable_flushing'
p507
S'true'
p508
ssS'name'
p509
S'Arduino Micro'
p510
sg132
S'/usr/share/arduino/hardware/arduino'
p511
saa(lp512
S'mini328'
p513
a(dp514
S'build'
p515
(dp516
S'core'
p517
S'arduino'
p518
sS'mcu'
p519
S'atmega328p'
p520
sS'f_cpu'
p521
S'16000000L'
p522
sS'variant'
p523
S'eightanaloginputs'
p524
ssS'bootloader'
p525
(dp526
S'extended_fuses'
p527
S'0x05'
p528
sS'high_fuses'
p529
S'0xd8'
p530
sS'low_fuses'
p531
S'0xff'
p532
sS'lock_bits'
p533
S'0x0F'
p534
sS'file'
p535
S'optiboot_atmega328-Mini.hex'
p536
sS'path'
p537
S'optiboot'
p538
sS'unlock_bits'
p539
S'0x3F'
p540
ssS'upload'
p541
(dp542
S'speed'
p543
S'115200'
p544
sS'maximum_size'
p545
S'28672'
p546
sS'protocol'
p547
S'arduino'
p548
ssS'name'
p549
S'Arduino Mini w/ ATmega328'
p550
sg132
S'/usr/share/arduino/hardware/arduino'
p551
saa(lp552
S'mini'
p553
a(dp554
S'build'
p555
(dp556
S'core'
p557
S'arduino'
p558
sS'mcu'
p559
S'atmega168'
p560
sS'f_cpu'
p561
S'16000000L'
p562
sS'variant'
p563
S'eightanaloginputs'
p564
ssS'bootloader'
p565
(dp566
S'extended_fuses'
p567
S'0x00'
p568
sS'high_fuses'
p569
S'0xdd'
p570
sS'low_fuses'
p571
S'0xff'
p572
sS'lock_bits'
p573
S'0x0F'
p574
sS'file'
p575
S'ATmegaBOOT_168_ng.hex'
p576
sS'path'
p577
S'atmega'
p578
sS'unlock_bits'
p579
S'0x3F'
p580
ssS'upload'
p581
(dp582
S'speed'
p583
S'19200'
p584
sS'maximum_size'
p585
S'14336'
p586
sS'protocol'
p587
S'arduino'
p588
ssS'name'
p589
S'Arduino Mini w/ ATmega168'
p590
sg132
S'/usr/share/arduino/hardware/arduino'
p591
saa(lp592
S'ethernet'
p593
a(dp594
S'build'
p595
(dp596
S'f_cpu'
p597
S'16000000L'
p598
sS'mcu'
p599
S'atmega328p'
p600
sS'variant'
p601
S'standard'
p602
sS'core'
p603
S'arduino'
p604
ssS'bootloader'
p605
(dp606
S'extended_fuses'
p607
S'0x05'
p608
sS'high_fuses'
p609
S'0xde'
p610
sS'low_fuses'
p611
S'0xff'
p612
sS'lock_bits'
p613
S'0x0F'
p614
sS'file'
p615
S'optiboot_atmega328.hex'
p616
sS'path'
p617
S'optiboot'
p618
sS'unlock_bits'
p619
S'0x3F'
p620
ssS'upload'
p621
(dp622
S'speed'
p623
S'115200'
p624
sS'maximum_size'
p625
S'32256'
p626
sS'protocol'
p627
S'arduino'
p628
ssS'name'
p629
S'Arduino Ethernet'
p630
sg132
S'/usr/share/arduino/hardware/arduino'
p631
saa(lp632
S'fio'
p633
a(dp634
S'build'
p635
(dp636
S'core'
p637
S'arduino'
p638
sS'mcu'
p639
S'atmega328p'
p640
sS'f_cpu'
p641
S'8000000L'
p642
sS'variant'
p643
S'eightanaloginputs'
p644
ssS'bootloader'
p645
(dp646
S'extended_fuses'
p647
S'0x05'
p648
sS'high_fuses'
p649
S'0xDA'
p650
sS'low_fuses'
p651
S'0xFF'
p652
sS'lock_bits'
p653
S'0x0F'
p654
sS'file'
p655
S'ATmegaBOOT_168_atmega328_pro_8MHz.hex'
p656
sS'path'
p657
S'arduino:atmega'
p658
sS'unlock_bits'
p659
S'0x3F'
p660
ssS'upload'
p661
(dp662
S'speed'
p663
S'57600'
p664
sS'maximum_size'
p665
S'30720'
p666
sS'protocol'
p667
S'arduino'
p668
ssS'name'
p669
S'Arduino Fio'
p670
sg132
S'/usr/share/arduino/hardware/arduino'
p671
saa(lp672
S'bt328'
p673
a(dp674
S'build'
p675
(dp676
S'core'
p677
S'arduino'
p678
sS'mcu'
p679
S'atmega328p'
p680
sS'f_cpu'
p681
S'16000000L'
p682
sS'variant'
p683
S'eightanaloginputs'
p684
ssS'bootloader'
p685
(dp686
S'extended_fuses'
p687
S'0x05'
p688
sS'high_fuses'
p689
S'0xd8'
p690
sS'low_fuses'
p691
S'0xff'
p692
sS'lock_bits'
p693
S'0x0F'
p694
sS'file'
p695
S'ATmegaBOOT_168_atmega328_bt.hex'
p696
sS'path'
p697
S'bt'
p698
sS'unlock_bits'
p699
S'0x3F'
p700
ssS'upload'
p701
(dp702
S'speed'
p703
S'19200'
p704
sS'maximum_size'
p705
S'28672'
p706
sS'protocol'
p707
S'arduino'
p708
sS'disable_flushing'
p709
S'true'
p710
ssS'name'
p711
S'Arduino BT w/ ATmega328'
p712
sg132
S'/usr/share/arduino/hardware/arduino'
p713
saa(lp714
S'bt'
p715
a(dp716
S'build'
p717
(dp718
S'core'
p719
S'arduino'
p720
sS'mcu'
p721
S'atmega168'
p722
sS'f_cpu'
p723
S'16000000L'
p724
sS'variant'
p725
S'eightanaloginputs'
p726
ssS'bootloader'
p727
(dp728
S'extended_fuses'
p729
S'0x00'
p730
sS'high_fuses'
p731
S'0xdd'
p732
sS'low_fuses'
p733
S'0xff'
p734
sS'lock_bits'
p735
S'0x0F'
p736
sS'file'
p737
S'ATmegaBOOT_168.hex'
p738
sS'path'
p739
S'bt'
p740
sS'unlock_bits'
p741
S'0x3F'
p742
ssS'upload'
p743
(dp744
S'speed'
p745
S'19200'
p746
sS'maximum_size'
p747
S'14336'
p748
sS'protocol'
p749
S'arduino'
p750
sS'disable_flushing'
p751
S'true'
p752
ssS'name'
p753
S'Arduino BT w/ ATmega168'
p754
sg132
S'/usr/share/arduino/hardware/arduino'
p755
saa(lp756
S'LilyPadUSB'
p757
a(dp758
S'build'
p759
(dp760
S'core'
p761
S'arduino'
p762
sS'f_cpu'
p763
S'8000000L'
p764
sS'vid'
p765
S'0x1B4F'
p766
sS'pid'
p767
S'0x9208'
p768
sS'variant'
p769
S'leonardo'
p770
sS'mcu'
p771
S'atmega32u4'
p772
ssS'bootloader'
p773
(dp774
S'extended_fuses'
p775
S'0xce'
p776
sS'high_fuses'
p777
S'0xd8'
p778
sS'low_fuses'
p779
S'0xff'
p780
sS'lock_bits'
p781
S'0x2F'
p782
sS'file'
p783
S'Caterina-LilyPadUSB.hex'
p784
sS'path'
p785
S'caterina-LilyPadUSB'
p786
sS'unlock_bits'
p787
S'0x3F'
p788
ssS'upload'
p789
(dp790
S'speed'
p791
S'57600'
p792
sS'maximum_size'
p793
S'28672'
p794
sS'protocol'
p795
S'avr109'
p796
sS'disable_flushing'
p797
S'true'
p798
ssS'name'
p799
S'LilyPad Arduino USB'
p800
sg132
S'/usr/share/arduino/hardware/arduino'
p801
saa(lp802
S'lilypad328'
p803
a(dp804
S'build'
p805
(dp806
S'core'
p807
S'arduino'
p808
sS'mcu'
p809
S'atmega328p'
p810
sS'f_cpu'
p811
S'8000000L'
p812
sS'variant'
p813
S'standard'
p814
ssS'bootloader'
p815
(dp816
S'extended_fuses'
p817
S'0x05'
p818
sS'high_fuses'
p819
S'0xDA'
p820
sS'low_fuses'
p821
S'0xFF'
p822
sS'lock_bits'
p823
S'0x0F'
p824
sS'file'
p825
S'ATmegaBOOT_168_atmega328_pro_8MHz.hex'
p826
sS'path'
p827
S'atmega'
p828
sS'unlock_bits'
p829
S'0x3F'
p830
ssS'upload'
p831
(dp832
S'speed'
p833
S'57600'
p834
sS'maximum_size'
p835
S'30720'
p836
sS'protocol'
p837
S'arduino'
p838
ssS'name'
p839
S'LilyPad Arduino w/ ATmega328'
p840
sg132
S'/usr/share/arduino/hardware/arduino'
p841
saa(lp842
S'lilypad'
p843
a(dp844
S'build'
p845
(dp846
S'core'
p847
S'arduino'
p848
sS'mcu'
p849
S'atmega168'
p850
sS'f_cpu'
p851
S'8000000L'
p852
sS'variant'
p853
S'standard'
p854
ssS'bootloader'
p855
(dp856
S'extended_fuses'
p857
S'0x00'
p858
sS'high_fuses'
p859
S'0xdd'
p860
sS'low_fuses'
p861
S'0xe2'
p862
sS'lock_bits'
p863
S'0x0F'
p864
sS'file'
p865
S'LilyPadBOOT_168.hex'
p866
sS'path'
p867
S'lilypad'
p868
sS'unlock_bits'
p869
S'0x3F'
p870
ssS'upload'
p871
(dp872
S'speed'
p873
S'19200'
p874
sS'maximum_size'
p875
S'14336'
p876
sS'protocol'
p877
S'arduino'
p878
ssS'name'
p879
S'LilyPad Arduino w/ ATmega168'
p880
sg132
S'/usr/share/arduino/hardware/arduino'
p881
saa(lp882
S'pro5v328'
p883
a(dp884
S'build'
p885
(dp886
S'core'
p887
S'arduino'
p888
sS'mcu'
p889
S'atmega328p'
p890
sS'f_cpu'
p891
S'16000000L'
p892
sS'variant'
p893
S'standard'
p894
ssS'bootloader'
p895
(dp896
S'extended_fuses'
p897
S'0x05'
p898
sS'high_fuses'
p899
S'0xDA'
p900
sS'low_fuses'
p901
S'0xFF'
p902
sS'lock_bits'
p903
S'0x0F'
p904
sS'file'
p905
S'ATmegaBOOT_168_atmega328.hex'
p906
sS'path'
p907
S'atmega'
p908
sS'unlock_bits'
p909
S'0x3F'
p910
ssS'upload'
p911
(dp912
S'speed'
p913
S'57600'
p914
sS'maximum_size'
p915
S'30720'
p916
sS'protocol'
p917
S'arduino'
p918
ssS'name'
p919
S'Arduino Pro or Pro Mini (5V, 16 MHz) w/ ATmega328'
p920
sg132
S'/usr/share/arduino/hardware/arduino'
p921
saa(lp922
S'pro5v'
p923
a(dp924
S'build'
p925
(dp926
S'core'
p927
S'arduino'
p928
sS'mcu'
p929
S'atmega168'
p930
sS'f_cpu'
p931
S'16000000L'
p932
sS'variant'
p933
S'standard'
p934
ssS'bootloader'
p935
(dp936
S'extended_fuses'
p937
S'0x00'
p938
sS'high_fuses'
p939
S'0xdd'
p940
sS'low_fuses'
p941
S'0xff'
p942
sS'lock_bits'
p943
S'0x0F'
p944
sS'file'
p945
S'ATmegaBOOT_168_diecimila.hex'
p946
sS'path'
p947
S'atmega'
p948
sS'unlock_bits'
p949
S'0x3F'
p950
ssS'upload'
p951
(dp952
S'speed'
p953
S'19200'
p954
sS'maximum_size'
p955
S'14336'
p956
sS'protocol'
p957
S'arduino'
p958
ssS'name'
p959
S'Arduino Pro or Pro Mini (5V, 16 MHz) w/ ATmega168'
p960
sg132
S'/usr/share/arduino/hardware/arduino'
p961
saa(lp962
S'pro328'
p963
a(dp964
S'build'
p965
(dp966
S'core'
p967
S'arduino'
p968
sS'mcu'
p969
S'atmega328p'
p970
sS'f_cpu'
p971
S'8000000L'
p972
sS'variant'
p973
S'standard'
p974
ssS'bootloader'
p975
(dp976
S'extended_fuses'
p977
S'0x05'
p978
sS'high_fuses'
p979
S'0xDA'
p980
sS'low_fuses'
p981
S'0xFF'
p982
sS'lock_bits'
p983
S'0x0F'
p984
sS'file'
p985
S'ATmegaBOOT_168_atmega328_pro_8MHz.hex'
p986
sS'path'
p987
S'atmega'
p988
sS'unlock_bits'
p989
S'0x3F'
p990
ssS'upload'
p991
(dp992
S'speed'
p993
S'57600'
p994
sS'maximum_size'
p995
S'30720'
p996
sS'protocol'
p997
S'arduino'
p998
ssS'name'
p999
S'Arduino Pro or Pro Mini (3.3V, 8 MHz) w/ ATmega328'
p1000
sg132
S'/usr/share/arduino/hardware/arduino'
p1001
saa(lp1002
S'pro'
p1003
a(dp1004
S'build'
p1005
(dp1006
S'core'
p1007
S'arduino'
p1008
sS'mcu'
p1009
S'atmega168'
p1010
sS'f_cpu'
p1011
S'8000000L'
p1012
sS'variant'
p1013
S'standard'
p1014
ssS'bootloader'
p1015
(dp1016
S'extended_fuses'
p1017
S'0x00'
p1018
sS'high_fuses'
p1019
S'0xdd'
p1020
sS'low_fuses'
p1021
S'0xc6'
p1022
sS'lock_bits'
p1023
S'0x0F'
p1024
sS'file'
p1025
S'ATmegaBOOT_168_pro_8MHz.hex'
p1026
sS'path'
p1027
S'atmega'
p1028
sS'unlock_bits'
p1029
S'0x3F'
p1030
ssS'upload'
p1031
(dp1032
S'speed'
p1033
S'19200'
p1034
sS'maximum_size'
p1035
S'14336'
p1036
sS'protocol'
p1037
S'arduino'
p1038
ssS'name'
p1039
S'Arduino Pro or Pro Mini (3.3V, 8 MHz) w/ ATmega168'
p1040
sg132
S'/usr/share/arduino/hardware/arduino'
p1041
saa(lp1042
S'atmega168'
p1043
a(dp1044
S'build'
p1045
(dp1046
S'core'
p1047
S'arduino'
p1048
sS'mcu'
p1049
S'atmega168'
p1050
sS'f_cpu'
p1051
S'16000000L'
p1052
sS'variant'
p1053
S'standard'
p1054
ssS'bootloader'
p1055
(dp1056
S'extended_fuses'
p1057
S'0x00'
p1058
sS'high_fuses'
p1059
S'0xdd'
p1060
sS'low_fuses'
p1061
S'0xff'
p1062
sS'lock_bits'
p1063
S'0x0F'
p1064
sS'file'
p1065
S'ATmegaBOOT_168_ng.hex'
p1066
sS'path'
p1067
S'atmega'
p1068
sS'unlock_bits'
p1069
S'0x3F'
p1070
ssS'upload'
p1071
(dp1072
S'speed'
p1073
S'19200'
p1074
sS'maximum_size'
p1075
S'14336'
p1076
sS'protocol'
p1077
S'arduino'
p1078
ssS'name'
p1079
S'Arduino NG or older w/ ATmega168'
p1080
sg132
S'/usr/share/arduino/hardware/arduino'
p1081
saa(lp1082
S'atmega8'
p1083
a(dp1084
S'build'
p1085
(dp1086
S'core'
p1087
S'arduino'
p1088
sS'mcu'
p1089
S'atmega8'
p1090
sS'f_cpu'
p1091
S'16000000L'
p1092
sS'variant'
p1093
S'standard'
p1094
ssS'bootloader'
p1095
(dp1096
S'high_fuses'
p1097
S'0xca'
p1098
sS'low_fuses'
p1099
S'0xdf'
p1100
sS'lock_bits'
p1101
S'0x0F'
p1102
sS'file'
p1103
S'ATmegaBOOT-prod-firmware-2009-11-07.hex'
p1104
sS'path'
p1105
S'atmega8'
p1106
sS'unlock_bits'
p1107
S'0x3F'
p1108
ssS'upload'
p1109
(dp1110
S'speed'
p1111
S'19200'
p1112
sS'maximum_size'
p1113
S'7168'
p1114
sS'protocol'
p1115
S'arduino'
p1116
ssS'name'
p1117
S'Arduino NG or older w/ ATmega8'
p1118
sg132
S'/usr/share/arduino/hardware/arduino'
p1119
saa(lp1120
S'robotControl'
p1121
a(dp1122
S'build'
p1123
(dp1124
S'core'
p1125
S'robot'
p1126
sS'f_cpu'
p1127
S'16000000L'
p1128
sS'vid'
p1129
S'0x2341'
p1130
sS'pid'
p1131
S'0x8038'
p1132
sS'variant'
p1133
S'robot_control'
p1134
sS'mcu'
p1135
S'atmega32u4'
p1136
ssS'bootloader'
p1137
(dp1138
S'extended_fuses'
p1139
S'0xcb'
p1140
sS'high_fuses'
p1141
S'0xd8'
p1142
sS'low_fuses'
p1143
S'0xff'
p1144
sS'lock_bits'
p1145
S'0x2F'
p1146
sS'file'
p1147
S'Caterina-Robot-Control.hex'
p1148
sS'path'
p1149
S'caterina-Arduino_Robot'
p1150
sS'unlock_bits'
p1151
S'0x3F'
p1152
ssS'upload'
p1153
(dp1154
S'speed'
p1155
S'57600'
p1156
sS'maximum_size'
p1157
S'28672'
p1158
sS'protocol'
p1159
S'avr109'
p1160
sS'disable_flushing'
p1161
S'true'
p1162
ssS'name'
p1163
S'Arduino Robot Control'
p1164
sg132
S'/usr/share/arduino/hardware/arduino'
p1165
saa(lp1166
S'robotMotor'
p1167
a(dp1168
S'build'
p1169
(dp1170
S'core'
p1171
S'robot'
p1172
sS'f_cpu'
p1173
S'16000000L'
p1174
sS'vid'
p1175
S'0x2341'
p1176
sS'pid'
p1177
S'0x8039'
p1178
sS'variant'
p1179
S'robot_motor'
p1180
sS'mcu'
p1181
S'atmega32u4'
p1182
ssS'bootloader'
p1183
(dp1184
S'extended_fuses'
p1185
S'0xcb'
p1186
sS'high_fuses'
p1187
S'0xd8'
p1188
sS'low_fuses'
p1189
S'0xff'
p1190
sS'lock_bits'
p1191
S'0x2F'
p1192
sS'file'
p1193
S'Caterina-Robot-Motor.hex'
p1194
sS'path'
p1195
S'caterina-Arduino_Robot'
p1196
sS'unlock_bits'
p1197
S'0x3F'
p1198
ssS'upload'
p1199
(dp1200
S'speed'
p1201
S'57600'
p1202
sS'maximum_size'
p1203
S'28672'
p1204
sS'protocol'
p1205
S'avr109'
p1206
sS'disable_flushing'
p1207
S'true'
p1208
ssS'name'
p1209
S'Arduino Robot Motor'
p1210
sg132
S'/usr/share/arduino/hardware/arduino'
p1211
saatp1212
Rp1213
(dp1214
S'default'
p1215
S'uno'
p1216
sbtp1217
a(S'cxx'
p1218
S'/usr/share/arduino/hardware/tools/avr/bin/avr-g++'
p1219
tp1220
a.